target datalayout = "e-m:e-p270:32:32-p271:32:32-p272:64:64-i64:64-i128:128-f80:128-n8:16:32:64-S128"
target triple = "x86_64-pc-linux-gnu"

%struct.bn_gencb_st = type { ptr, ptr }

; Function Attrs: nounwind uwtable
define hidden i32 @BN_GENCB_call(ptr noundef %0, i32 noundef %1, i32 noundef %2) #0 {
  %4 = alloca i32, align 4
  %5 = alloca ptr, align 8
  %6 = alloca i32, align 4
  %7 = alloca i32, align 4
  store ptr %0, ptr %5, align 8, !tbaa !6
  store i32 %1, ptr %6, align 4, !tbaa !15
  store i32 %2, ptr %7, align 4, !tbaa !15
  %8 = load ptr, ptr %5, align 8, !tbaa !6
  %9 = icmp ne ptr %8, null
  br i1 %9, label %11, label %10

10:                                               ; preds = %3
  store i32 1, ptr %4, align 4
  br label %19

11:                                               ; preds = %3
  %12 = load ptr, ptr %5, align 8, !tbaa !6
  %13 = getelementptr inbounds nuw %struct.bn_gencb_st, ptr %12, i32 0, i32 1
  %14 = load ptr, ptr %13, align 8, !tbaa !12
  %15 = load i32, ptr %6, align 4, !tbaa !15
  %16 = load i32, ptr %7, align 4, !tbaa !15
  %17 = load ptr, ptr %5, align 8, !tbaa !6
  %18 = call i32 %14(i32 noundef %15, i32 noundef %16, ptr noundef %17)
  store i32 %18, ptr %4, align 4
  br label %19

19:                                               ; preds = %11, %10
  %20 = load i32, ptr %4, align 4
  ret i32 %20
}