; Function Attrs: nounwind uwtable
define hidden i32 @BN_GENCB_call(ptr noundef %0, i32 noundef %1, i32 noundef %2) local_unnamed_addr #1 {
  %.not = icmp eq ptr %0, null
  br i1 %.not, label %8, label %4

4:                                                ; preds = %3
  %5 = getelementptr inbounds nuw i8, ptr %0, i64 8
  %6 = load ptr, ptr %5, align 8, !tbaa !6
  %7 = tail call i32 %6(i32 noundef %1, i32 noundef %2, ptr noundef nonnull %0) #5
  br label %8

8:                                                ; preds = %3, %4
  %.0 = phi i32 [ %7, %4 ], [ 1, %3 ]
  ret i32 %.0
}